; Function Attrs: nounwind sspstrong uwtable
define internal i64 @ripper_column(i64 noundef %0) #0 {
  %2 = tail call ptr @rb_check_typeddata(i64 noundef %0, ptr noundef nonnull @parser_data_type) #5
  %3 = load ptr, ptr %2, align 8, !tbaa !18
  %4 = tail call i32 @rb_ruby_ripper_initialized_p(ptr noundef %3) #5
  %.not.i = icmp eq i32 %4, 0
  br i1 %.not.i, label %5, label %ripper_parser_params.exit

5:                                                ; preds = %1
  %6 = load i64, ptr @rb_eArgError, align 8, !tbaa !6
  tail call void (i64, ptr, ...) @rb_raise(i64 noundef %6, ptr noundef nonnull @.str.45) #6
  unreachable

ripper_parser_params.exit:                        ; preds = %1
  %7 = tail call i64 @rb_ruby_parser_parsing_thread(ptr noundef %3) #5
  %8 = icmp eq i64 %7, 4
  br i1 %8, label %rb_long2num_inline.exit, label %9

9:                                                ; preds = %ripper_parser_params.exit
  %10 = tail call i64 @rb_ruby_ripper_column(ptr noundef %3) #5
  %11 = add i64 %10, 4611686018427387904
  %or.cond.i = icmp sgt i64 %11, -1
  br i1 %or.cond.i, label %12, label %15

12:                                               ; preds = %9
  %13 = shl nsw i64 %10, 1
  %14 = or disjoint i64 %13, 1
  br label %rb_long2num_inline.exit

15:                                               ; preds = %9
  %16 = tail call i64 @rb_int2big(i64 noundef %10) #5
  br label %rb_long2num_inline.exit

rb_long2num_inline.exit:                          ; preds = %15, %12, %ripper_parser_params.exit
  %.0 = phi i64 [ 4, %ripper_parser_params.exit ], [ %14, %12 ], [ %16, %15 ]
  ret i64 %.0
}